; Function Attrs: nounwind uwtable
define range(i32 -1, 1) i32 @H5SL_release(ptr noundef captures(none) %0) local_unnamed_addr #0 {
  %2 = load i8, ptr @H5SL_init_g, align 1, !tbaa !3, !range !7, !noundef !8
  %3 = trunc nuw i8 %2 to i1
  %4 = load i8, ptr @H5_libterm_g, align 1, !range !7
  %5 = trunc nuw i8 %4 to i1
  %6 = select i1 %3, i1 true, i1 %5
  br i1 %6, label %9, label %7, !prof !9

7:                                                ; preds = %1
  store i8 1, ptr @H5SL_init_g, align 1, !tbaa !3
  %8 = tail call i32 @H5SL__init_package()
  %.pre = load i8, ptr @H5SL_init_g, align 1, !tbaa !3, !range !7
  %.pre3 = load i8, ptr @H5_libterm_g, align 1, !range !7
  %.pre4 = trunc nuw i8 %.pre to i1
  %.pre5 = trunc nuw i8 %.pre3 to i1
  br label %9

9:                                                ; preds = %7, %1
  %.pre-phi6 = phi i1 [ %.pre5, %7 ], [ %5, %1 ]
  %.pre-phi = phi i1 [ %.pre4, %7 ], [ %3, %1 ]
  %10 = xor i1 %.pre-phi6, true
  %11 = select i1 %.pre-phi, i1 true, i1 %10
  br i1 %11, label %12, label %19, !prof !9

12:                                               ; preds = %9
  %13 = tail call fastcc i32 @H5SL__release_common(ptr noundef %0, ptr noundef null, ptr noundef null)
  %14 = icmp slt i32 %13, 0
  br i1 %14, label %15, label %19

15:                                               ; preds = %12
  %16 = load i64, ptr @H5E_SLIST_g, align 8, !tbaa !13
  %17 = load i64, ptr @H5E_CANTFREE_g, align 8, !tbaa !13
  %18 = tail call i32 (ptr, ptr, i32, i64, i64, ptr, ...) @H5E_printf_stack(ptr noundef nonnull @.str, ptr noundef nonnull @__func__.H5SL_release, i32 noundef 2149, i64 noundef %16, i64 noundef %17, ptr noundef nonnull @.str.4) #9
  br label %19

19:                                               ; preds = %15, %12, %9
  %.0 = phi i32 [ -1, %15 ], [ 0, %12 ], [ 0, %9 ]
  ret i32 %.0
}